target datalayout = "e-m:e-p270:32:32-p271:32:32-p272:64:64-i64:64-i128:128-f80:128-n8:16:32:64-S128"
target triple = "x86_64-pc-linux-gnu"

%struct.expert_field = type { i32, i32 }

@ei_gmr1_missing_mandatory_element = internal global %struct.expert_field zeroinitializer, align 4
@.str.273 = private unnamed_addr constant [62 x i8] c"Missing Mandatory element %s%s, rest of dissection is suspect\00", align 1
@.str.274 = private unnamed_addr constant [1 x i8] zeroinitializer, align 1

; Function Attrs: null_pointer_is_valid sspstrong uwtable
define internal void @gmr1_rr_msg_imm_ass_2(ptr noundef %0, ptr noundef %1, ptr noundef %2, i32 noundef %3, i32 noundef %4) #1 {
  %6 = alloca ptr, align 8
  %7 = alloca ptr, align 8
  %8 = alloca ptr, align 8
  %9 = alloca i32, align 4
  %10 = alloca i32, align 4
  %11 = alloca i32, align 4
  %12 = alloca i32, align 4
  %13 = alloca i32, align 4
  store ptr %0, ptr %6, align 8
  store ptr %1, ptr %7, align 8
  store ptr %2, ptr %8, align 8
  store i32 %3, ptr %9, align 4
  store i32 %4, ptr %10, align 4
  call void @llvm.lifetime.start.p0(i64 4, ptr %11) #5
  call void @llvm.lifetime.start.p0(i64 4, ptr %12) #5
  call void @llvm.lifetime.start.p0(i64 4, ptr %13) #5
  %14 = load i32, ptr %9, align 4
  store i32 %14, ptr %11, align 4
  %15 = load i32, ptr %10, align 4
  store i32 %15, ptr %12, align 4
  store i32 0, ptr %13, align 4
  %16 = load i32, ptr %12, align 4
  %17 = icmp sgt i32 %16, 0
  br i1 %17, label %18, label %33

18:                                               ; preds = %5
  %19 = load ptr, ptr %6, align 8
  %20 = load ptr, ptr %7, align 8
  %21 = load ptr, ptr %8, align 8
  %22 = load i32, ptr %11, align 4
  %23 = call zeroext i16 @elem_v(ptr noundef %19, ptr noundef %20, ptr noundef %21, i32 noundef 15, i32 noundef 27, i32 noundef %22, ptr noundef null)
  %24 = zext i16 %23 to i32
  store i32 %24, ptr %13, align 4
  %25 = icmp sgt i32 %24, 0
  br i1 %25, label %26, label %33

26:                                               ; preds = %18
  %27 = load i32, ptr %13, align 4
  %28 = load i32, ptr %11, align 4
  %29 = add i32 %28, %27
  store i32 %29, ptr %11, align 4
  %30 = load i32, ptr %13, align 4
  %31 = load i32, ptr %12, align 4
  %32 = sub i32 %31, %30
  store i32 %32, ptr %12, align 4
  br label %40

33:                                               ; preds = %18, %5
  %34 = load ptr, ptr %7, align 8
  %35 = load ptr, ptr %8, align 8
  %36 = load ptr, ptr %6, align 8
  %37 = load i32, ptr %11, align 4
  %38 = call ptr @get_gsm_a_msg_string(i32 noundef 15, i32 noundef 27)
  %39 = call ptr (ptr, ptr, ptr, ptr, i32, i32, ptr, ...) @proto_tree_add_expert_format(ptr noundef %34, ptr noundef %35, ptr noundef @ei_gmr1_missing_mandatory_element, ptr noundef %36, i32 noundef %37, i32 noundef 0, ptr noundef @.str.273, ptr noundef %38, ptr noundef @.str.274)
  br label %40

40:                                               ; preds = %33, %26
  %41 = load i32, ptr %12, align 4
  %42 = icmp sgt i32 %41, 0
  br i1 %42, label %43, label %58

43:                                               ; preds = %40
  %44 = load ptr, ptr %6, align 8
  %45 = load ptr, ptr %7, align 8
  %46 = load ptr, ptr %8, align 8
  %47 = load i32, ptr %11, align 4
  %48 = call zeroext i16 @elem_v(ptr noundef %44, ptr noundef %45, ptr noundef %46, i32 noundef 15, i32 noundef 28, i32 noundef %47, ptr noundef null)
  %49 = zext i16 %48 to i32
  store i32 %49, ptr %13, align 4
  %50 = icmp sgt i32 %49, 0
  br i1 %50, label %51, label %58

51:                                               ; preds = %43
  %52 = load i32, ptr %13, align 4
  %53 = load i32, ptr %11, align 4
  %54 = add i32 %53, %52
  store i32 %54, ptr %11, align 4
  %55 = load i32, ptr %13, align 4
  %56 = load i32, ptr %12, align 4
  %57 = sub i32 %56, %55
  store i32 %57, ptr %12, align 4
  br label %65

58:                                               ; preds = %43, %40
  %59 = load ptr, ptr %7, align 8
  %60 = load ptr, ptr %8, align 8
  %61 = load ptr, ptr %6, align 8
  %62 = load i32, ptr %11, align 4
  %63 = call ptr @get_gsm_a_msg_string(i32 noundef 15, i32 noundef 28)
  %64 = call ptr (ptr, ptr, ptr, ptr, i32, i32, ptr, ...) @proto_tree_add_expert_format(ptr noundef %59, ptr noundef %60, ptr noundef @ei_gmr1_missing_mandatory_element, ptr noundef %61, i32 noundef %62, i32 noundef 0, ptr noundef @.str.273, ptr noundef %63, ptr noundef @.str.274)
  br label %65

65:                                               ; preds = %58, %51
  %66 = load i32, ptr %12, align 4
  %67 = icmp sgt i32 %66, 0
  br i1 %67, label %68, label %83

68:                                               ; preds = %65
  %69 = load ptr, ptr %6, align 8
  %70 = load ptr, ptr %7, align 8
  %71 = load ptr, ptr %8, align 8
  %72 = load i32, ptr %11, align 4
  %73 = call zeroext i16 @elem_v(ptr noundef %69, ptr noundef %70, ptr noundef %71, i32 noundef 15, i32 noundef 29, i32 noundef %72, ptr noundef null)
  %74 = zext i16 %73 to i32
  store i32 %74, ptr %13, align 4
  %75 = icmp sgt i32 %74, 0
  br i1 %75, label %76, label %83

76:                                               ; preds = %68
  %77 = load i32, ptr %13, align 4
  %78 = load i32, ptr %11, align 4
  %79 = add i32 %78, %77
  store i32 %79, ptr %11, align 4
  %80 = load i32, ptr %13, align 4
  %81 = load i32, ptr %12, align 4
  %82 = sub i32 %81, %80
  store i32 %82, ptr %12, align 4
  br label %90

83:                                               ; preds = %68, %65
  %84 = load ptr, ptr %7, align 8
  %85 = load ptr, ptr %8, align 8
  %86 = load ptr, ptr %6, align 8
  %87 = load i32, ptr %11, align 4
  %88 = call ptr @get_gsm_a_msg_string(i32 noundef 15, i32 noundef 29)
  %89 = call ptr (ptr, ptr, ptr, ptr, i32, i32, ptr, ...) @proto_tree_add_expert_format(ptr noundef %84, ptr noundef %85, ptr noundef @ei_gmr1_missing_mandatory_element, ptr noundef %86, i32 noundef %87, i32 noundef 0, ptr noundef @.str.273, ptr noundef %88, ptr noundef @.str.274)
  br label %90

90:                                               ; preds = %83, %76
  %91 = load i32, ptr %12, align 4
  %92 = icmp sgt i32 %91, 0
  br i1 %92, label %93, label %108

93:                                               ; preds = %90
  %94 = load ptr, ptr %6, align 8
  %95 = load ptr, ptr %7, align 8
  %96 = load ptr, ptr %8, align 8
  %97 = load i32, ptr %11, align 4
  %98 = call zeroext i16 @elem_v(ptr noundef %94, ptr noundef %95, ptr noundef %96, i32 noundef 15, i32 noundef 8, i32 noundef %97, ptr noundef null)
  %99 = zext i16 %98 to i32
  store i32 %99, ptr %13, align 4
  %100 = icmp sgt i32 %99, 0
  br i1 %100, label %101, label %108

101:                                              ; preds = %93
  %102 = load i32, ptr %13, align 4
  %103 = load i32, ptr %11, align 4
  %104 = add i32 %103, %102
  store i32 %104, ptr %11, align 4
  %105 = load i32, ptr %13, align 4
  %106 = load i32, ptr %12, align 4
  %107 = sub i32 %106, %105
  store i32 %107, ptr %12, align 4
  br label %115

108:                                              ; preds = %93, %90
  %109 = load ptr, ptr %7, align 8
  %110 = load ptr, ptr %8, align 8
  %111 = load ptr, ptr %6, align 8
  %112 = load i32, ptr %11, align 4
  %113 = call ptr @get_gsm_a_msg_string(i32 noundef 15, i32 noundef 8)
  %114 = call ptr (ptr, ptr, ptr, ptr, i32, i32, ptr, ...) @proto_tree_add_expert_format(ptr noundef %109, ptr noundef %110, ptr noundef @ei_gmr1_missing_mandatory_element, ptr noundef %111, i32 noundef %112, i32 noundef 0, ptr noundef @.str.273, ptr noundef %113, ptr noundef @.str.274)
  br label %115

115:                                              ; preds = %108, %101
  %116 = load i32, ptr %12, align 4
  %117 = icmp sgt i32 %116, 0
  br i1 %117, label %118, label %133

118:                                              ; preds = %115
  %119 = load ptr, ptr %6, align 8
  %120 = load ptr, ptr %7, align 8
  %121 = load ptr, ptr %8, align 8
  %122 = load i32, ptr %11, align 4
  %123 = call zeroext i16 @elem_v(ptr noundef %119, ptr noundef %120, ptr noundef %121, i32 noundef 15, i32 noundef 12, i32 noundef %122, ptr noundef null)
  %124 = zext i16 %123 to i32
  store i32 %124, ptr %13, align 4
  %125 = icmp sgt i32 %124, 0
  br i1 %125, label %126, label %133

126:                                              ; preds = %118
  %127 = load i32, ptr %13, align 4
  %128 = load i32, ptr %11, align 4
  %129 = add i32 %128, %127
  store i32 %129, ptr %11, align 4
  %130 = load i32, ptr %13, align 4
  %131 = load i32, ptr %12, align 4
  %132 = sub i32 %131, %130
  store i32 %132, ptr %12, align 4
  br label %140

133:                                              ; preds = %118, %115
  %134 = load ptr, ptr %7, align 8
  %135 = load ptr, ptr %8, align 8
  %136 = load ptr, ptr %6, align 8
  %137 = load i32, ptr %11, align 4
  %138 = call ptr @get_gsm_a_msg_string(i32 noundef 15, i32 noundef 12)
  %139 = call ptr (ptr, ptr, ptr, ptr, i32, i32, ptr, ...) @proto_tree_add_expert_format(ptr noundef %134, ptr noundef %135, ptr noundef @ei_gmr1_missing_mandatory_element, ptr noundef %136, i32 noundef %137, i32 noundef 0, ptr noundef @.str.273, ptr noundef %138, ptr noundef @.str.274)
  br label %140

140:                                              ; preds = %133, %126
  %141 = load i32, ptr %12, align 4
  %142 = icmp sgt i32 %141, 0
  br i1 %142, label %143, label %158

143:                                              ; preds = %140
  %144 = load ptr, ptr %6, align 8
  %145 = load ptr, ptr %7, align 8
  %146 = load ptr, ptr %8, align 8
  %147 = load i32, ptr %11, align 4
  %148 = call zeroext i16 @elem_v(ptr noundef %144, ptr noundef %145, ptr noundef %146, i32 noundef 15, i32 noundef 26, i32 noundef %147, ptr noundef null)
  %149 = zext i16 %148 to i32
  store i32 %149, ptr %13, align 4
  %150 = icmp sgt i32 %149, 0
  br i1 %150, label %151, label %158

151:                                              ; preds = %143
  %152 = load i32, ptr %13, align 4
  %153 = load i32, ptr %11, align 4
  %154 = add i32 %153, %152
  store i32 %154, ptr %11, align 4
  %155 = load i32, ptr %13, align 4
  %156 = load i32, ptr %12, align 4
  %157 = sub i32 %156, %155
  store i32 %157, ptr %12, align 4
  br label %165

158:                                              ; preds = %143, %140
  %159 = load ptr, ptr %7, align 8
  %160 = load ptr, ptr %8, align 8
  %161 = load ptr, ptr %6, align 8
  %162 = load i32, ptr %11, align 4
  %163 = call ptr @get_gsm_a_msg_string(i32 noundef 15, i32 noundef 26)
  %164 = call ptr (ptr, ptr, ptr, ptr, i32, i32, ptr, ...) @proto_tree_add_expert_format(ptr noundef %159, ptr noundef %160, ptr noundef @ei_gmr1_missing_mandatory_element, ptr noundef %161, i32 noundef %162, i32 noundef 0, ptr noundef @.str.273, ptr noundef %163, ptr noundef @.str.274)
  br label %165

165:                                              ; preds = %158, %151
  %166 = load i32, ptr %12, align 4
  %167 = icmp sgt i32 %166, 0
  br i1 %167, label %168, label %183

168:                                              ; preds = %165
  %169 = load ptr, ptr %6, align 8
  %170 = load ptr, ptr %7, align 8
  %171 = load ptr, ptr %8, align 8
  %172 = load i32, ptr %11, align 4
  %173 = call zeroext i16 @elem_v(ptr noundef %169, ptr noundef %170, ptr noundef %171, i32 noundef 15, i32 noundef 25, i32 noundef %172, ptr noundef null)
  %174 = zext i16 %173 to i32
  store i32 %174, ptr %13, align 4
  %175 = icmp sgt i32 %174, 0
  br i1 %175, label %176, label %183

176:                                              ; preds = %168
  %177 = load i32, ptr %13, align 4
  %178 = load i32, ptr %11, align 4
  %179 = add i32 %178, %177
  store i32 %179, ptr %11, align 4
  %180 = load i32, ptr %13, align 4
  %181 = load i32, ptr %12, align 4
  %182 = sub i32 %181, %180
  store i32 %182, ptr %12, align 4
  br label %190

183:                                              ; preds = %168, %165
  %184 = load ptr, ptr %7, align 8
  %185 = load ptr, ptr %8, align 8
  %186 = load ptr, ptr %6, align 8
  %187 = load i32, ptr %11, align 4
  %188 = call ptr @get_gsm_a_msg_string(i32 noundef 15, i32 noundef 25)
  %189 = call ptr (ptr, ptr, ptr, ptr, i32, i32, ptr, ...) @proto_tree_add_expert_format(ptr noundef %184, ptr noundef %185, ptr noundef @ei_gmr1_missing_mandatory_element, ptr noundef %186, i32 noundef %187, i32 noundef 0, ptr noundef @.str.273, ptr noundef %188, ptr noundef @.str.274)
  br label %190

190:                                              ; preds = %183, %176
  %191 = load i32, ptr %12, align 4
  %192 = icmp sgt i32 %191, 0
  br i1 %192, label %193, label %208

193:                                              ; preds = %190
  %194 = load ptr, ptr %6, align 8
  %195 = load ptr, ptr %7, align 8
  %196 = load ptr, ptr %8, align 8
  %197 = load i32, ptr %11, align 4
  %198 = call zeroext i16 @elem_v(ptr noundef %194, ptr noundef %195, ptr noundef %196, i32 noundef 15, i32 noundef 30, i32 noundef %197, ptr noundef null)
  %199 = zext i16 %198 to i32
  store i32 %199, ptr %13, align 4
  %200 = icmp sgt i32 %199, 0
  br i1 %200, label %201, label %208

201:                                              ; preds = %193
  %202 = load i32, ptr %13, align 4
  %203 = load i32, ptr %11, align 4
  %204 = add i32 %203, %202
  store i32 %204, ptr %11, align 4
  %205 = load i32, ptr %13, align 4
  %206 = load i32, ptr %12, align 4
  %207 = sub i32 %206, %205
  store i32 %207, ptr %12, align 4
  br label %215

208:                                              ; preds = %193, %190
  %209 = load ptr, ptr %7, align 8
  %210 = load ptr, ptr %8, align 8
  %211 = load ptr, ptr %6, align 8
  %212 = load i32, ptr %11, align 4
  %213 = call ptr @get_gsm_a_msg_string(i32 noundef 15, i32 noundef 30)
  %214 = call ptr (ptr, ptr, ptr, ptr, i32, i32, ptr, ...) @proto_tree_add_expert_format(ptr noundef %209, ptr noundef %210, ptr noundef @ei_gmr1_missing_mandatory_element, ptr noundef %211, i32 noundef %212, i32 noundef 0, ptr noundef @.str.273, ptr noundef %213, ptr noundef @.str.274)
  br label %215

215:                                              ; preds = %208, %201
  call void @llvm.lifetime.end.p0(i64 4, ptr %13) #5
  call void @llvm.lifetime.end.p0(i64 4, ptr %12) #5
  call void @llvm.lifetime.end.p0(i64 4, ptr %11) #5
  ret void
}