; Function Attrs: null_pointer_is_valid sspstrong uwtable
define internal void @gmr1_rr_msg_imm_ass_2(ptr noundef %0, ptr noundef %1, ptr noundef %2, i32 noundef %3, i32 noundef %4) #1 {
  %6 = icmp sgt i32 %4, 0
  br i1 %6, label %7, label %13

7:                                                ; preds = %5
  %8 = tail call zeroext i16 @elem_v(ptr noundef %0, ptr noundef %1, ptr noundef %2, i32 noundef 15, i32 noundef 27, i32 noundef %3, ptr noundef null)
  %.not = icmp eq i16 %8, 0
  br i1 %.not, label %13, label %9

9:                                                ; preds = %7
  %10 = zext i16 %8 to i32
  %11 = add i32 %3, %10
  %12 = sub nsw i32 %4, %10
  br label %16

13:                                               ; preds = %7, %5
  %14 = tail call ptr @get_gsm_a_msg_string(i32 noundef 15, i32 noundef 27)
  %15 = tail call ptr (ptr, ptr, ptr, ptr, i32, i32, ptr, ...) @proto_tree_add_expert_format(ptr noundef %1, ptr noundef %2, ptr noundef nonnull @ei_gmr1_missing_mandatory_element, ptr noundef %0, i32 noundef %3, i32 noundef 0, ptr noundef nonnull @.str.273, ptr noundef %14, ptr noundef nonnull @.str.274)
  br label %16

16:                                               ; preds = %13, %9
  %.0105 = phi i32 [ %11, %9 ], [ %3, %13 ]
  %.0 = phi i32 [ %12, %9 ], [ %4, %13 ]
  %17 = icmp sgt i32 %.0, 0
  br i1 %17, label %18, label %24

18:                                               ; preds = %16
  %19 = tail call zeroext i16 @elem_v(ptr noundef %0, ptr noundef %1, ptr noundef %2, i32 noundef 15, i32 noundef 28, i32 noundef %.0105, ptr noundef null)
  %.not120 = icmp eq i16 %19, 0
  br i1 %.not120, label %24, label %20

20:                                               ; preds = %18
  %21 = zext i16 %19 to i32
  %22 = add i32 %.0105, %21
  %23 = sub nsw i32 %.0, %21
  br label %27

24:                                               ; preds = %18, %16
  %25 = tail call ptr @get_gsm_a_msg_string(i32 noundef 15, i32 noundef 28)
  %26 = tail call ptr (ptr, ptr, ptr, ptr, i32, i32, ptr, ...) @proto_tree_add_expert_format(ptr noundef %1, ptr noundef %2, ptr noundef nonnull @ei_gmr1_missing_mandatory_element, ptr noundef %0, i32 noundef %.0105, i32 noundef 0, ptr noundef nonnull @.str.273, ptr noundef %25, ptr noundef nonnull @.str.274)
  br label %27

27:                                               ; preds = %24, %20
  %.1106 = phi i32 [ %22, %20 ], [ %.0105, %24 ]
  %.1 = phi i32 [ %23, %20 ], [ %.0, %24 ]
  %28 = icmp sgt i32 %.1, 0
  br i1 %28, label %29, label %35

29:                                               ; preds = %27
  %30 = tail call zeroext i16 @elem_v(ptr noundef %0, ptr noundef %1, ptr noundef %2, i32 noundef 15, i32 noundef 29, i32 noundef %.1106, ptr noundef null)
  %.not121 = icmp eq i16 %30, 0
  br i1 %.not121, label %35, label %31

31:                                               ; preds = %29
  %32 = zext i16 %30 to i32
  %33 = add i32 %.1106, %32
  %34 = sub nsw i32 %.1, %32
  br label %38

35:                                               ; preds = %29, %27
  %36 = tail call ptr @get_gsm_a_msg_string(i32 noundef 15, i32 noundef 29)
  %37 = tail call ptr (ptr, ptr, ptr, ptr, i32, i32, ptr, ...) @proto_tree_add_expert_format(ptr noundef %1, ptr noundef %2, ptr noundef nonnull @ei_gmr1_missing_mandatory_element, ptr noundef %0, i32 noundef %.1106, i32 noundef 0, ptr noundef nonnull @.str.273, ptr noundef %36, ptr noundef nonnull @.str.274)
  br label %38

38:                                               ; preds = %35, %31
  %.2107 = phi i32 [ %33, %31 ], [ %.1106, %35 ]
  %.2 = phi i32 [ %34, %31 ], [ %.1, %35 ]
  %39 = icmp sgt i32 %.2, 0
  br i1 %39, label %40, label %46

40:                                               ; preds = %38
  %41 = tail call zeroext i16 @elem_v(ptr noundef %0, ptr noundef %1, ptr noundef %2, i32 noundef 15, i32 noundef 8, i32 noundef %.2107, ptr noundef null)
  %.not122 = icmp eq i16 %41, 0
  br i1 %.not122, label %46, label %42

42:                                               ; preds = %40
  %43 = zext i16 %41 to i32
  %44 = add i32 %.2107, %43
  %45 = sub nsw i32 %.2, %43
  br label %49

46:                                               ; preds = %40, %38
  %47 = tail call ptr @get_gsm_a_msg_string(i32 noundef 15, i32 noundef 8)
  %48 = tail call ptr (ptr, ptr, ptr, ptr, i32, i32, ptr, ...) @proto_tree_add_expert_format(ptr noundef %1, ptr noundef %2, ptr noundef nonnull @ei_gmr1_missing_mandatory_element, ptr noundef %0, i32 noundef %.2107, i32 noundef 0, ptr noundef nonnull @.str.273, ptr noundef %47, ptr noundef nonnull @.str.274)
  br label %49

49:                                               ; preds = %46, %42
  %.3108 = phi i32 [ %44, %42 ], [ %.2107, %46 ]
  %.3 = phi i32 [ %45, %42 ], [ %.2, %46 ]
  %50 = icmp sgt i32 %.3, 0
  br i1 %50, label %51, label %57

51:                                               ; preds = %49
  %52 = tail call zeroext i16 @elem_v(ptr noundef %0, ptr noundef %1, ptr noundef %2, i32 noundef 15, i32 noundef 12, i32 noundef %.3108, ptr noundef null)
  %.not123 = icmp eq i16 %52, 0
  br i1 %.not123, label %57, label %53

53:                                               ; preds = %51
  %54 = zext i16 %52 to i32
  %55 = add i32 %.3108, %54
  %56 = sub nsw i32 %.3, %54
  br label %60

57:                                               ; preds = %51, %49
  %58 = tail call ptr @get_gsm_a_msg_string(i32 noundef 15, i32 noundef 12)
  %59 = tail call ptr (ptr, ptr, ptr, ptr, i32, i32, ptr, ...) @proto_tree_add_expert_format(ptr noundef %1, ptr noundef %2, ptr noundef nonnull @ei_gmr1_missing_mandatory_element, ptr noundef %0, i32 noundef %.3108, i32 noundef 0, ptr noundef nonnull @.str.273, ptr noundef %58, ptr noundef nonnull @.str.274)
  br label %60

60:                                               ; preds = %57, %53
  %.4109 = phi i32 [ %55, %53 ], [ %.3108, %57 ]
  %.4 = phi i32 [ %56, %53 ], [ %.3, %57 ]
  %61 = icmp sgt i32 %.4, 0
  br i1 %61, label %62, label %68

62:                                               ; preds = %60
  %63 = tail call zeroext i16 @elem_v(ptr noundef %0, ptr noundef %1, ptr noundef %2, i32 noundef 15, i32 noundef 26, i32 noundef %.4109, ptr noundef null)
  %.not124 = icmp eq i16 %63, 0
  br i1 %.not124, label %68, label %64

64:                                               ; preds = %62
  %65 = zext i16 %63 to i32
  %66 = add i32 %.4109, %65
  %67 = sub nsw i32 %.4, %65
  br label %71

68:                                               ; preds = %62, %60
  %69 = tail call ptr @get_gsm_a_msg_string(i32 noundef 15, i32 noundef 26)
  %70 = tail call ptr (ptr, ptr, ptr, ptr, i32, i32, ptr, ...) @proto_tree_add_expert_format(ptr noundef %1, ptr noundef %2, ptr noundef nonnull @ei_gmr1_missing_mandatory_element, ptr noundef %0, i32 noundef %.4109, i32 noundef 0, ptr noundef nonnull @.str.273, ptr noundef %69, ptr noundef nonnull @.str.274)
  br label %71

71:                                               ; preds = %68, %64
  %.5110 = phi i32 [ %66, %64 ], [ %.4109, %68 ]
  %.5 = phi i32 [ %67, %64 ], [ %.4, %68 ]
  %72 = icmp sgt i32 %.5, 0
  br i1 %72, label %73, label %79

73:                                               ; preds = %71
  %74 = tail call zeroext i16 @elem_v(ptr noundef %0, ptr noundef %1, ptr noundef %2, i32 noundef 15, i32 noundef 25, i32 noundef %.5110, ptr noundef null)
  %.not125 = icmp eq i16 %74, 0
  br i1 %.not125, label %79, label %75

75:                                               ; preds = %73
  %76 = zext i16 %74 to i32
  %77 = add i32 %.5110, %76
  %78 = sub nsw i32 %.5, %76
  br label %82

79:                                               ; preds = %73, %71
  %80 = tail call ptr @get_gsm_a_msg_string(i32 noundef 15, i32 noundef 25)
  %81 = tail call ptr (ptr, ptr, ptr, ptr, i32, i32, ptr, ...) @proto_tree_add_expert_format(ptr noundef %1, ptr noundef %2, ptr noundef nonnull @ei_gmr1_missing_mandatory_element, ptr noundef %0, i32 noundef %.5110, i32 noundef 0, ptr noundef nonnull @.str.273, ptr noundef %80, ptr noundef nonnull @.str.274)
  br label %82

82:                                               ; preds = %79, %75
  %.6111 = phi i32 [ %77, %75 ], [ %.5110, %79 ]
  %.6 = phi i32 [ %78, %75 ], [ %.5, %79 ]
  %83 = icmp sgt i32 %.6, 0
  br i1 %83, label %84, label %86

84:                                               ; preds = %82
  %85 = tail call zeroext i16 @elem_v(ptr noundef %0, ptr noundef %1, ptr noundef %2, i32 noundef 15, i32 noundef 30, i32 noundef %.6111, ptr noundef null)
  %.not126 = icmp eq i16 %85, 0
  br i1 %.not126, label %86, label %89

86:                                               ; preds = %84, %82
  %87 = tail call ptr @get_gsm_a_msg_string(i32 noundef 15, i32 noundef 30)
  %88 = tail call ptr (ptr, ptr, ptr, ptr, i32, i32, ptr, ...) @proto_tree_add_expert_format(ptr noundef %1, ptr noundef %2, ptr noundef nonnull @ei_gmr1_missing_mandatory_element, ptr noundef %0, i32 noundef %.6111, i32 noundef 0, ptr noundef nonnull @.str.273, ptr noundef %87, ptr noundef nonnull @.str.274)
  br label %89

89:                                               ; preds = %84, %86
  ret void
}